target datalayout = "e-m:e-p270:32:32-p271:32:32-p272:64:64-i64:64-i128:128-f80:128-n8:16:32:64-S128"
target triple = "x86_64-pc-linux-gnu"

%struct.buffer_s = type { ptr, i64 }
%struct.ZSTD_customMem = type { ptr, ptr, ptr }
%union.pthread_mutex_t = type { %struct.__pthread_mutex_s }
%struct.__pthread_mutex_s = type { i32, i32, i32, i32, i32, i16, i16, %struct.__pthread_internal_list }
%struct.__pthread_internal_list = type { ptr, ptr }
%struct.ZSTDMT_bufferPool_s = type { %union.pthread_mutex_t, i64, i32, i32, %struct.ZSTD_customMem, ptr }

; Function Attrs: inlinehint nounwind uwtable
define internal void @ZSTD_customFree(ptr noundef %0, ptr noundef byval(%struct.ZSTD_customMem) align 8 %1) #1 {
  %3 = alloca ptr, align 8
  store ptr %0, ptr %3, align 8, !tbaa !16
  %4 = load ptr, ptr %3, align 8, !tbaa !16
  %5 = icmp ne ptr %4, null
  br i1 %5, label %6, label %19

6:                                                ; preds = %2
  %7 = getelementptr inbounds nuw %struct.ZSTD_customMem, ptr %1, i32 0, i32 1
  %8 = load ptr, ptr %7, align 8, !tbaa !12
  %9 = icmp ne ptr %8, null
  br i1 %9, label %10, label %16

10:                                               ; preds = %6
  %11 = getelementptr inbounds nuw %struct.ZSTD_customMem, ptr %1, i32 0, i32 1
  %12 = load ptr, ptr %11, align 8, !tbaa !12
  %13 = getelementptr inbounds nuw %struct.ZSTD_customMem, ptr %1, i32 0, i32 2
  %14 = load ptr, ptr %13, align 8, !tbaa !72
  %15 = load ptr, ptr %3, align 8, !tbaa !16
  call void %12(ptr noundef %14, ptr noundef %15)
  br label %18

16:                                               ; preds = %6
  %17 = load ptr, ptr %3, align 8, !tbaa !16
  call void @free(ptr noundef %17) #11
  br label %18

18:                                               ; preds = %16, %10
  br label %19

19:                                               ; preds = %18, %2
  ret void
}

; Function Attrs: nounwind uwtable
define internal void @ZSTDMT_freeBufferPool(ptr noundef %0) #0 {
  %2 = alloca ptr, align 8
  %3 = alloca i32, align 4
  store ptr %0, ptr %2, align 8, !tbaa !56
  br label %4

4:                                                ; preds = %1
  br label %5

5:                                                ; preds = %4
  %6 = load ptr, ptr %2, align 8, !tbaa !56
  %7 = icmp ne ptr %6, null
  br i1 %7, label %9, label %8

8:                                                ; preds = %5
  br label %51

9:                                                ; preds = %5
  %10 = load ptr, ptr %2, align 8, !tbaa !56
  %11 = getelementptr inbounds nuw %struct.ZSTDMT_bufferPool_s, ptr %10, i32 0, i32 5
  %12 = load ptr, ptr %11, align 8, !tbaa !57
  %13 = icmp ne ptr %12, null
  br i1 %13, label %14, label %44

14:                                               ; preds = %9
  call void @llvm.lifetime.start.p0(i64 4, ptr %3) #11
  store i32 0, ptr %3, align 4, !tbaa !3
  br label %15

15:                                               ; preds = %35, %14
  %16 = load i32, ptr %3, align 4, !tbaa !3
  %17 = load ptr, ptr %2, align 8, !tbaa !56
  %18 = getelementptr inbounds nuw %struct.ZSTDMT_bufferPool_s, ptr %17, i32 0, i32 2
  %19 = load i32, ptr %18, align 8, !tbaa !60
  %20 = icmp ult i32 %16, %19
  br i1 %20, label %21, label %38

21:                                               ; preds = %15
  br label %22

22:                                               ; preds = %21
  br label %23

23:                                               ; preds = %22
  br label %24

24:                                               ; preds = %23
  %25 = load ptr, ptr %2, align 8, !tbaa !56
  %26 = getelementptr inbounds nuw %struct.ZSTDMT_bufferPool_s, ptr %25, i32 0, i32 5
  %27 = load ptr, ptr %26, align 8, !tbaa !57
  %28 = load i32, ptr %3, align 4, !tbaa !3
  %29 = zext i32 %28 to i64
  %30 = getelementptr inbounds nuw %struct.buffer_s, ptr %27, i64 %29
  %31 = getelementptr inbounds nuw %struct.buffer_s, ptr %30, i32 0, i32 0
  %32 = load ptr, ptr %31, align 8, !tbaa !61
  %33 = load ptr, ptr %2, align 8, !tbaa !56
  %34 = getelementptr inbounds nuw %struct.ZSTDMT_bufferPool_s, ptr %33, i32 0, i32 4
  call void @ZSTD_customFree(ptr noundef %32, ptr noundef byval(%struct.ZSTD_customMem) align 8 %34)
  br label %35

35:                                               ; preds = %24
  %36 = load i32, ptr %3, align 4, !tbaa !3
  %37 = add i32 %36, 1
  store i32 %37, ptr %3, align 4, !tbaa !3
  br label %15, !llvm.loop !62

38:                                               ; preds = %15
  %39 = load ptr, ptr %2, align 8, !tbaa !56
  %40 = getelementptr inbounds nuw %struct.ZSTDMT_bufferPool_s, ptr %39, i32 0, i32 5
  %41 = load ptr, ptr %40, align 8, !tbaa !57
  %42 = load ptr, ptr %2, align 8, !tbaa !56
  %43 = getelementptr inbounds nuw %struct.ZSTDMT_bufferPool_s, ptr %42, i32 0, i32 4
  call void @ZSTD_customFree(ptr noundef %41, ptr noundef byval(%struct.ZSTD_customMem) align 8 %43)
  call void @llvm.lifetime.end.p0(i64 4, ptr %3) #11
  br label %44

44:                                               ; preds = %38, %9
  %45 = load ptr, ptr %2, align 8, !tbaa !56
  %46 = getelementptr inbounds nuw %struct.ZSTDMT_bufferPool_s, ptr %45, i32 0, i32 0
  %47 = call i32 @pthread_mutex_destroy(ptr noundef %46) #11
  %48 = load ptr, ptr %2, align 8, !tbaa !56
  %49 = load ptr, ptr %2, align 8, !tbaa !56
  %50 = getelementptr inbounds nuw %struct.ZSTDMT_bufferPool_s, ptr %49, i32 0, i32 4
  call void @ZSTD_customFree(ptr noundef %48, ptr noundef byval(%struct.ZSTD_customMem) align 8 %50)
  br label %51

51:                                               ; preds = %44, %8
  ret void
}