; Function Attrs: nounwind uwtable
define internal fastcc void @ZSTDMT_freeBufferPool(ptr noundef %0) unnamed_addr #0 {
  %.not = icmp eq ptr %0, null
  br i1 %.not, label %ZSTD_customFree.exit24, label %2

2:                                                ; preds = %1
  %3 = getelementptr inbounds nuw i8, ptr %0, i64 80
  %4 = load ptr, ptr %3, align 8, !tbaa !54
  %.not13 = icmp eq ptr %4, null
  br i1 %.not13, label %23, label %.preheader

.preheader:                                       ; preds = %2
  %5 = getelementptr inbounds nuw i8, ptr %0, i64 48
  %6 = load i32, ptr %5, align 8, !tbaa !53
  %.not26 = icmp eq i32 %6, 0
  %7 = getelementptr i8, ptr %0, i64 64
  br i1 %.not26, label %._crit_edge.thread, label %.lr.ph

.lr.ph:                                           ; preds = %.preheader
  %8 = getelementptr i8, ptr %0, i64 72
  br label %9

9:                                                ; preds = %.lr.ph, %ZSTD_customFree.exit
  %indvars.iv = phi i64 [ 0, %.lr.ph ], [ %indvars.iv.next, %ZSTD_customFree.exit ]
  %10 = load ptr, ptr %3, align 8, !tbaa !54
  %11 = getelementptr inbounds nuw %struct.buffer_s, ptr %10, i64 %indvars.iv
  %12 = load ptr, ptr %11, align 8, !tbaa !57
  %.val = load ptr, ptr %7, align 8
  %.val14 = load ptr, ptr %8, align 8
  %.not.i = icmp eq ptr %12, null
  br i1 %.not.i, label %ZSTD_customFree.exit, label %13

13:                                               ; preds = %9
  %.not4.i = icmp eq ptr %.val, null
  br i1 %.not4.i, label %15, label %14

14:                                               ; preds = %13
  tail call void %.val(ptr noundef %.val14, ptr noundef nonnull %12) #14
  br label %ZSTD_customFree.exit

15:                                               ; preds = %13
  tail call void @free(ptr noundef nonnull %12) #14
  br label %ZSTD_customFree.exit

ZSTD_customFree.exit:                             ; preds = %9, %14, %15
  %indvars.iv.next = add nuw nsw i64 %indvars.iv, 1
  %16 = load i32, ptr %5, align 8, !tbaa !53
  %17 = zext i32 %16 to i64
  %18 = icmp samesign ult i64 %indvars.iv.next, %17
  br i1 %18, label %9, label %._crit_edge, !llvm.loop !58

._crit_edge:                                      ; preds = %ZSTD_customFree.exit
  %.pre = load ptr, ptr %3, align 8, !tbaa !54
  %19 = getelementptr i8, ptr %0, i64 64
  %.not.i19 = icmp eq ptr %.pre, null
  br i1 %.not.i19, label %23, label %._crit_edge.thread

._crit_edge.thread:                               ; preds = %.preheader, %._crit_edge
  %.val1531.in = phi ptr [ %19, %._crit_edge ], [ %7, %.preheader ]
  %20 = phi ptr [ %.pre, %._crit_edge ], [ %4, %.preheader ]
  %.val1531 = load ptr, ptr %.val1531.in, align 8
  %.not4.i20 = icmp eq ptr %.val1531, null
  br i1 %.not4.i20, label %22, label %21

21:                                               ; preds = %._crit_edge.thread
  %.val1632.in = getelementptr i8, ptr %0, i64 72
  %.val1632 = load ptr, ptr %.val1632.in, align 8
  tail call void %.val1531(ptr noundef %.val1632, ptr noundef nonnull %20) #14
  br label %23

22:                                               ; preds = %._crit_edge.thread
  tail call void @free(ptr noundef nonnull %20) #14
  br label %23

23:                                               ; preds = %2, %._crit_edge, %21, %22
  %24 = tail call i32 @pthread_mutex_destroy(ptr noundef nonnull %0) #14
  %25 = getelementptr i8, ptr %0, i64 64
  %.val17 = load ptr, ptr %25, align 8
  %.not4.i23 = icmp eq ptr %.val17, null
  br i1 %.not4.i23, label %28, label %26

26:                                               ; preds = %23
  %27 = getelementptr i8, ptr %0, i64 72
  %.val18 = load ptr, ptr %27, align 8
  tail call void %.val17(ptr noundef %.val18, ptr noundef nonnull %0) #14
  br label %ZSTD_customFree.exit24

28:                                               ; preds = %23
  tail call void @free(ptr noundef nonnull %0) #14
  br label %ZSTD_customFree.exit24

ZSTD_customFree.exit24:                           ; preds = %28, %26, %1
  ret void
}